target datalayout = "e-m:e-p270:32:32-p271:32:32-p272:64:64-i64:64-i128:128-f80:128-n8:16:32:64-S128"
target triple = "x86_64-pc-linux-gnu"

@proto_tcpcl = internal global i32 0, align 4
@proto_tcpcl_exts = internal global i32 0, align 4
@tcpcl_handle = internal global ptr null, align 8
@.str.7 = private unnamed_addr constant [18 x i8] c"tcpcl.v4.xfer_ext\00", align 1
@.str.21 = private unnamed_addr constant [4 x i8] c"tls\00", align 1
@tls_handle = internal global ptr null, align 8
@.str.22 = private unnamed_addr constant [7 x i8] c"bundle\00", align 1
@bundle_handle = internal global ptr null, align 8
@.str.23 = private unnamed_addr constant [9 x i8] c"tcp.port\00", align 1
@.str.24 = private unnamed_addr constant [4 x i8] c"tcp\00", align 1
@.str.25 = private unnamed_addr constant [15 x i8] c"TCPCL over TCP\00", align 1
@.str.26 = private unnamed_addr constant [10 x i8] c"tcpcl_tcp\00", align 1
@.str.27 = private unnamed_addr constant [16 x i8] c"Transfer Length\00", align 1
@.str.28 = private unnamed_addr constant [19 x i8] c"1.3.6.1.5.5.7.3.35\00", align 1
@.str.29 = private unnamed_addr constant [21 x i8] c"id-kp-bundleSecurity\00", align 1
@.str.30 = private unnamed_addr constant [19 x i8] c"1.3.6.1.5.5.7.8.11\00", align 1
@.str.31 = private unnamed_addr constant [16 x i8] c"id-on-bundleEID\00", align 1

; Function Attrs: nounwind null_pointer_is_valid sspstrong uwtable
define internal void @reinit_tcpcl() #5 {
  ret void
}

; Function Attrs: null_pointer_is_valid sspstrong uwtable
define hidden void @proto_reg_handoff_tcpcl() #0 {
  %1 = alloca ptr, align 8
  %2 = load i32, ptr @proto_tcpcl, align 4
  %3 = call ptr @find_dissector_add_dependency(ptr noundef @.str.21, i32 noundef %2)
  store ptr %3, ptr @tls_handle, align 8
  %4 = call ptr @find_dissector(ptr noundef @.str.22)
  store ptr %4, ptr @bundle_handle, align 8
  %5 = load ptr, ptr @tcpcl_handle, align 8
  call void @dissector_add_uint_with_preference(ptr noundef @.str.23, i32 noundef 4556, ptr noundef %5)
  %6 = load i32, ptr @proto_tcpcl, align 4
  call void @heur_dissector_add(ptr noundef @.str.24, ptr noundef @dissect_tcpcl_heur, ptr noundef @.str.25, ptr noundef @.str.26, i32 noundef %6, i32 noundef 1)
  call void @llvm.lifetime.start.p0(i64 8, ptr %1) #11
  %7 = load i32, ptr @proto_tcpcl_exts, align 4
  %8 = call ptr @create_dissector_handle_with_name_and_description(ptr noundef @dissect_xferext_transferlen, i32 noundef %7, ptr noundef null, ptr noundef @.str.27)
  store ptr %8, ptr %1, align 8
  %9 = load ptr, ptr %1, align 8
  call void @dissector_add_uint(ptr noundef @.str.7, i32 noundef 1, ptr noundef %9)
  call void @llvm.lifetime.end.p0(i64 8, ptr %1) #11
  %10 = load i32, ptr @proto_tcpcl_exts, align 4
  call void @register_ber_oid_dissector(ptr noundef @.str.28, ptr noundef null, i32 noundef %10, ptr noundef @.str.29)
  %11 = load i32, ptr @proto_tcpcl_exts, align 4
  call void @register_ber_oid_dissector(ptr noundef @.str.30, ptr noundef @dissect_othername_bundleeid, i32 noundef %11, ptr noundef @.str.31)
  call void @reinit_tcpcl()
  ret void
}