; Function Attrs: null_pointer_is_valid sspstrong uwtable
define hidden void @proto_reg_handoff_tcpcl() local_unnamed_addr #0 {
  %1 = load i32, ptr @proto_tcpcl, align 4
  %2 = tail call ptr @find_dissector_add_dependency(ptr noundef nonnull @.str.21, i32 noundef %1)
  store ptr %2, ptr @tls_handle, align 8
  %3 = tail call ptr @find_dissector(ptr noundef nonnull @.str.22)
  store ptr %3, ptr @bundle_handle, align 8
  %4 = load ptr, ptr @tcpcl_handle, align 8
  tail call void @dissector_add_uint_with_preference(ptr noundef nonnull @.str.23, i32 noundef 4556, ptr noundef %4)
  %5 = load i32, ptr @proto_tcpcl, align 4
  tail call void @heur_dissector_add(ptr noundef nonnull @.str.24, ptr noundef nonnull @dissect_tcpcl_heur, ptr noundef nonnull @.str.25, ptr noundef nonnull @.str.26, i32 noundef %5, i32 noundef 1)
  %6 = load i32, ptr @proto_tcpcl_exts, align 4
  %7 = tail call ptr @create_dissector_handle_with_name_and_description(ptr noundef nonnull @dissect_xferext_transferlen, i32 noundef %6, ptr noundef null, ptr noundef nonnull @.str.27)
  tail call void @dissector_add_uint(ptr noundef nonnull @.str.7, i32 noundef 1, ptr noundef %7)
  %8 = load i32, ptr @proto_tcpcl_exts, align 4
  tail call void @register_ber_oid_dissector(ptr noundef nonnull @.str.28, ptr noundef null, i32 noundef %8, ptr noundef nonnull @.str.29)
  %9 = load i32, ptr @proto_tcpcl_exts, align 4
  tail call void @register_ber_oid_dissector(ptr noundef nonnull @.str.30, ptr noundef nonnull @dissect_othername_bundleeid, i32 noundef %9, ptr noundef nonnull @.str.31)
  ret void
}